target datalayout = "e-m:e-p270:32:32-p271:32:32-p272:64:64-i64:64-i128:128-f80:128-n8:16:32:64-S128"
target triple = "x86_64-pc-linux-gnu"

%struct.SlruSharedData = type { i32, ptr, ptr, ptr, ptr, ptr, ptr, ptr, ptr, ptr, i32, %struct.pg_atomic_uint64, i32 }
%struct.pg_atomic_uint64 = type { i64 }
%union.LWLockPadded = type { %struct.LWLock, [112 x i8] }
%struct.LWLock = type { i16, %struct.pg_atomic_uint32, %struct.proclist_head }
%struct.pg_atomic_uint32 = type { i32 }
%struct.proclist_head = type { i32, i32 }
%struct.SlruCtlData = type { ptr, i16, i8, i32, ptr, [64 x i8] }

; Function Attrs: nounwind uwtable
define internal void @SimpleLruWaitIO(ptr noundef %0, i32 noundef %1) #0 {
  %3 = alloca ptr, align 8
  %4 = alloca i32, align 4
  %5 = alloca ptr, align 8
  %6 = alloca i32, align 4
  store ptr %0, ptr %3, align 8
  store i32 %1, ptr %4, align 4
  call void @llvm.lifetime.start.p0(i64 8, ptr %5) #9
  %7 = load ptr, ptr %3, align 8
  %8 = getelementptr inbounds nuw %struct.SlruCtlData, ptr %7, i32 0, i32 0
  %9 = load ptr, ptr %8, align 8
  store ptr %9, ptr %5, align 8
  call void @llvm.lifetime.start.p0(i64 4, ptr %6) #9
  %10 = load i32, ptr %4, align 4
  %11 = ashr i32 %10, 4
  store i32 %11, ptr %6, align 4
  %12 = load ptr, ptr %5, align 8
  %13 = getelementptr inbounds nuw %struct.SlruSharedData, ptr %12, i32 0, i32 7
  %14 = load ptr, ptr %13, align 8
  %15 = load i32, ptr %6, align 4
  %16 = sext i32 %15 to i64
  %17 = getelementptr inbounds %union.LWLockPadded, ptr %14, i64 %16
  call void @LWLockRelease(ptr noundef %17)
  %18 = load ptr, ptr %5, align 8
  %19 = getelementptr inbounds nuw %struct.SlruSharedData, ptr %18, i32 0, i32 6
  %20 = load ptr, ptr %19, align 8
  %21 = load i32, ptr %4, align 4
  %22 = sext i32 %21 to i64
  %23 = getelementptr inbounds %union.LWLockPadded, ptr %20, i64 %22
  %24 = call zeroext i1 @LWLockAcquire(ptr noundef %23, i32 noundef 1)
  %25 = load ptr, ptr %5, align 8
  %26 = getelementptr inbounds nuw %struct.SlruSharedData, ptr %25, i32 0, i32 6
  %27 = load ptr, ptr %26, align 8
  %28 = load i32, ptr %4, align 4
  %29 = sext i32 %28 to i64
  %30 = getelementptr inbounds %union.LWLockPadded, ptr %27, i64 %29
  call void @LWLockRelease(ptr noundef %30)
  %31 = load ptr, ptr %5, align 8
  %32 = getelementptr inbounds nuw %struct.SlruSharedData, ptr %31, i32 0, i32 7
  %33 = load ptr, ptr %32, align 8
  %34 = load i32, ptr %6, align 4
  %35 = sext i32 %34 to i64
  %36 = getelementptr inbounds %union.LWLockPadded, ptr %33, i64 %35
  %37 = call zeroext i1 @LWLockAcquire(ptr noundef %36, i32 noundef 0)
  %38 = load ptr, ptr %5, align 8
  %39 = getelementptr inbounds nuw %struct.SlruSharedData, ptr %38, i32 0, i32 2
  %40 = load ptr, ptr %39, align 8
  %41 = load i32, ptr %4, align 4
  %42 = sext i32 %41 to i64
  %43 = getelementptr inbounds i32, ptr %40, i64 %42
  %44 = load i32, ptr %43, align 4
  %45 = icmp eq i32 %44, 1
  br i1 %45, label %55, label %46

46:                                               ; preds = %2
  %47 = load ptr, ptr %5, align 8
  %48 = getelementptr inbounds nuw %struct.SlruSharedData, ptr %47, i32 0, i32 2
  %49 = load ptr, ptr %48, align 8
  %50 = load i32, ptr %4, align 4
  %51 = sext i32 %50 to i64
  %52 = getelementptr inbounds i32, ptr %49, i64 %51
  %53 = load i32, ptr %52, align 4
  %54 = icmp eq i32 %53, 3
  br i1 %54, label %55, label %100

55:                                               ; preds = %46, %2
  %56 = load ptr, ptr %5, align 8
  %57 = getelementptr inbounds nuw %struct.SlruSharedData, ptr %56, i32 0, i32 6
  %58 = load ptr, ptr %57, align 8
  %59 = load i32, ptr %4, align 4
  %60 = sext i32 %59 to i64
  %61 = getelementptr inbounds %union.LWLockPadded, ptr %58, i64 %60
  %62 = call zeroext i1 @LWLockConditionalAcquire(ptr noundef %61, i32 noundef 1)
  br i1 %62, label %63, label %99

63:                                               ; preds = %55
  %64 = load ptr, ptr %5, align 8
  %65 = getelementptr inbounds nuw %struct.SlruSharedData, ptr %64, i32 0, i32 2
  %66 = load ptr, ptr %65, align 8
  %67 = load i32, ptr %4, align 4
  %68 = sext i32 %67 to i64
  %69 = getelementptr inbounds i32, ptr %66, i64 %68
  %70 = load i32, ptr %69, align 4
  %71 = icmp eq i32 %70, 1
  br i1 %71, label %72, label %79

72:                                               ; preds = %63
  %73 = load ptr, ptr %5, align 8
  %74 = getelementptr inbounds nuw %struct.SlruSharedData, ptr %73, i32 0, i32 2
  %75 = load ptr, ptr %74, align 8
  %76 = load i32, ptr %4, align 4
  %77 = sext i32 %76 to i64
  %78 = getelementptr inbounds i32, ptr %75, i64 %77
  store i32 0, ptr %78, align 4
  br label %92

79:                                               ; preds = %63
  %80 = load ptr, ptr %5, align 8
  %81 = getelementptr inbounds nuw %struct.SlruSharedData, ptr %80, i32 0, i32 2
  %82 = load ptr, ptr %81, align 8
  %83 = load i32, ptr %4, align 4
  %84 = sext i32 %83 to i64
  %85 = getelementptr inbounds i32, ptr %82, i64 %84
  store i32 2, ptr %85, align 4
  %86 = load ptr, ptr %5, align 8
  %87 = getelementptr inbounds nuw %struct.SlruSharedData, ptr %86, i32 0, i32 3
  %88 = load ptr, ptr %87, align 8
  %89 = load i32, ptr %4, align 4
  %90 = sext i32 %89 to i64
  %91 = getelementptr inbounds i8, ptr %88, i64 %90
  store i8 1, ptr %91, align 1
  br label %92

92:                                               ; preds = %79, %72
  %93 = load ptr, ptr %5, align 8
  %94 = getelementptr inbounds nuw %struct.SlruSharedData, ptr %93, i32 0, i32 6
  %95 = load ptr, ptr %94, align 8
  %96 = load i32, ptr %4, align 4
  %97 = sext i32 %96 to i64
  %98 = getelementptr inbounds %union.LWLockPadded, ptr %95, i64 %97
  call void @LWLockRelease(ptr noundef %98)
  br label %99

99:                                               ; preds = %92, %55
  br label %100

100:                                              ; preds = %99, %46
  call void @llvm.lifetime.end.p0(i64 4, ptr %6) #9
  call void @llvm.lifetime.end.p0(i64 8, ptr %5) #9
  ret void
}

; Function Attrs: nounwind uwtable
define dso_local void @SlruDeleteSegment(ptr noundef %0, i64 noundef %1) #0 {
  %3 = alloca ptr, align 8
  %4 = alloca i64, align 8
  %5 = alloca ptr, align 8
  %6 = alloca i32, align 4
  %7 = alloca i8, align 1
  %8 = alloca i32, align 4
  %9 = alloca i32, align 4
  %10 = alloca i64, align 8
  %11 = alloca i32, align 4
  store ptr %0, ptr %3, align 8
  store i64 %1, ptr %4, align 8
  call void @llvm.lifetime.start.p0(i64 8, ptr %5) #9
  %12 = load ptr, ptr %3, align 8
  %13 = getelementptr inbounds nuw %struct.SlruCtlData, ptr %12, i32 0, i32 0
  %14 = load ptr, ptr %13, align 8
  store ptr %14, ptr %5, align 8
  call void @llvm.lifetime.start.p0(i64 4, ptr %6) #9
  store i32 0, ptr %6, align 4
  call void @llvm.lifetime.start.p0(i64 1, ptr %7) #9
  %15 = load ptr, ptr %5, align 8
  %16 = getelementptr inbounds nuw %struct.SlruSharedData, ptr %15, i32 0, i32 7
  %17 = load ptr, ptr %16, align 8
  %18 = load i32, ptr %6, align 4
  %19 = sext i32 %18 to i64
  %20 = getelementptr inbounds %union.LWLockPadded, ptr %17, i64 %19
  %21 = call zeroext i1 @LWLockAcquire(ptr noundef %20, i32 noundef 0)
  br label %22

22:                                               ; preds = %124, %2
  store i8 0, ptr %7, align 1
  call void @llvm.lifetime.start.p0(i64 4, ptr %8) #9
  store i32 0, ptr %8, align 4
  br label %23

23:                                               ; preds = %118, %22
  %24 = load i32, ptr %8, align 4
  %25 = load ptr, ptr %5, align 8
  %26 = getelementptr inbounds nuw %struct.SlruSharedData, ptr %25, i32 0, i32 0
  %27 = load i32, ptr %26, align 8
  %28 = icmp slt i32 %24, %27
  br i1 %28, label %30, label %29

29:                                               ; preds = %23
  store i32 3, ptr %9, align 4
  call void @llvm.lifetime.end.p0(i64 4, ptr %8) #9
  br label %121

30:                                               ; preds = %23
  call void @llvm.lifetime.start.p0(i64 8, ptr %10) #9
  call void @llvm.lifetime.start.p0(i64 4, ptr %11) #9
  %31 = load i32, ptr %8, align 4
  %32 = ashr i32 %31, 4
  store i32 %32, ptr %11, align 4
  %33 = load i32, ptr %11, align 4
  %34 = load i32, ptr %6, align 4
  %35 = icmp ne i32 %33, %34
  br i1 %35, label %36, label %51

36:                                               ; preds = %30
  %37 = load ptr, ptr %5, align 8
  %38 = getelementptr inbounds nuw %struct.SlruSharedData, ptr %37, i32 0, i32 7
  %39 = load ptr, ptr %38, align 8
  %40 = load i32, ptr %6, align 4
  %41 = sext i32 %40 to i64
  %42 = getelementptr inbounds %union.LWLockPadded, ptr %39, i64 %41
  call void @LWLockRelease(ptr noundef %42)
  %43 = load ptr, ptr %5, align 8
  %44 = getelementptr inbounds nuw %struct.SlruSharedData, ptr %43, i32 0, i32 7
  %45 = load ptr, ptr %44, align 8
  %46 = load i32, ptr %11, align 4
  %47 = sext i32 %46 to i64
  %48 = getelementptr inbounds %union.LWLockPadded, ptr %45, i64 %47
  %49 = call zeroext i1 @LWLockAcquire(ptr noundef %48, i32 noundef 0)
  %50 = load i32, ptr %11, align 4
  store i32 %50, ptr %6, align 4
  br label %51

51:                                               ; preds = %36, %30
  %52 = load ptr, ptr %5, align 8
  %53 = getelementptr inbounds nuw %struct.SlruSharedData, ptr %52, i32 0, i32 2
  %54 = load ptr, ptr %53, align 8
  %55 = load i32, ptr %8, align 4
  %56 = sext i32 %55 to i64
  %57 = getelementptr inbounds i32, ptr %54, i64 %56
  %58 = load i32, ptr %57, align 4
  %59 = icmp eq i32 %58, 0
  br i1 %59, label %60, label %61

60:                                               ; preds = %51
  store i32 5, ptr %9, align 4
  br label %115

61:                                               ; preds = %51
  %62 = load ptr, ptr %5, align 8
  %63 = getelementptr inbounds nuw %struct.SlruSharedData, ptr %62, i32 0, i32 4
  %64 = load ptr, ptr %63, align 8
  %65 = load i32, ptr %8, align 4
  %66 = sext i32 %65 to i64
  %67 = getelementptr inbounds i64, ptr %64, i64 %66
  %68 = load i64, ptr %67, align 8
  %69 = sdiv i64 %68, 32
  store i64 %69, ptr %10, align 8
  %70 = load i64, ptr %10, align 8
  %71 = load i64, ptr %4, align 8
  %72 = icmp ne i64 %70, %71
  br i1 %72, label %73, label %74

73:                                               ; preds = %61
  store i32 5, ptr %9, align 4
  br label %115

74:                                               ; preds = %61
  %75 = load ptr, ptr %5, align 8
  %76 = getelementptr inbounds nuw %struct.SlruSharedData, ptr %75, i32 0, i32 2
  %77 = load ptr, ptr %76, align 8
  %78 = load i32, ptr %8, align 4
  %79 = sext i32 %78 to i64
  %80 = getelementptr inbounds i32, ptr %77, i64 %79
  %81 = load i32, ptr %80, align 4
  %82 = icmp eq i32 %81, 2
  br i1 %82, label %83, label %99

83:                                               ; preds = %74
  %84 = load ptr, ptr %5, align 8
  %85 = getelementptr inbounds nuw %struct.SlruSharedData, ptr %84, i32 0, i32 3
  %86 = load ptr, ptr %85, align 8
  %87 = load i32, ptr %8, align 4
  %88 = sext i32 %87 to i64
  %89 = getelementptr inbounds i8, ptr %86, i64 %88
  %90 = load i8, ptr %89, align 1, !range !4, !noundef !5
  %91 = trunc i8 %90 to i1
  br i1 %91, label %99, label %92

92:                                               ; preds = %83
  %93 = load ptr, ptr %5, align 8
  %94 = getelementptr inbounds nuw %struct.SlruSharedData, ptr %93, i32 0, i32 2
  %95 = load ptr, ptr %94, align 8
  %96 = load i32, ptr %8, align 4
  %97 = sext i32 %96 to i64
  %98 = getelementptr inbounds i32, ptr %95, i64 %97
  store i32 0, ptr %98, align 4
  store i32 5, ptr %9, align 4
  br label %115

99:                                               ; preds = %83, %74
  %100 = load ptr, ptr %5, align 8
  %101 = getelementptr inbounds nuw %struct.SlruSharedData, ptr %100, i32 0, i32 2
  %102 = load ptr, ptr %101, align 8
  %103 = load i32, ptr %8, align 4
  %104 = sext i32 %103 to i64
  %105 = getelementptr inbounds i32, ptr %102, i64 %104
  %106 = load i32, ptr %105, align 4
  %107 = icmp eq i32 %106, 2
  br i1 %107, label %108, label %111

108:                                              ; preds = %99
  %109 = load ptr, ptr %3, align 8
  %110 = load i32, ptr %8, align 4
  call void @SlruInternalWritePage(ptr noundef %109, i32 noundef %110, ptr noundef null)
  br label %114

111:                                              ; preds = %99
  %112 = load ptr, ptr %3, align 8
  %113 = load i32, ptr %8, align 4
  call void @SimpleLruWaitIO(ptr noundef %112, i32 noundef %113)
  br label %114

114:                                              ; preds = %111, %108
  store i8 1, ptr %7, align 1
  store i32 0, ptr %9, align 4
  br label %115

115:                                              ; preds = %114, %92, %73, %60
  call void @llvm.lifetime.end.p0(i64 4, ptr %11) #9
  call void @llvm.lifetime.end.p0(i64 8, ptr %10) #9
  %116 = load i32, ptr %9, align 4
  switch i32 %116, label %134 [
    i32 0, label %117
    i32 5, label %118
  ]

117:                                              ; preds = %115
  br label %118

118:                                              ; preds = %117, %115
  %119 = load i32, ptr %8, align 4
  %120 = add i32 %119, 1
  store i32 %120, ptr %8, align 4
  br label %23, !llvm.loop !21

121:                                              ; preds = %29
  %122 = load i8, ptr %7, align 1, !range !4, !noundef !5
  %123 = trunc i8 %122 to i1
  br i1 %123, label %124, label %125

124:                                              ; preds = %121
  br label %22

125:                                              ; preds = %121
  %126 = load ptr, ptr %3, align 8
  %127 = load i64, ptr %4, align 8
  call void @SlruInternalDeleteSegment(ptr noundef %126, i64 noundef %127)
  %128 = load ptr, ptr %5, align 8
  %129 = getelementptr inbounds nuw %struct.SlruSharedData, ptr %128, i32 0, i32 7
  %130 = load ptr, ptr %129, align 8
  %131 = load i32, ptr %6, align 4
  %132 = sext i32 %131 to i64
  %133 = getelementptr inbounds %union.LWLockPadded, ptr %130, i64 %132
  call void @LWLockRelease(ptr noundef %133)
  call void @llvm.lifetime.end.p0(i64 1, ptr %7) #9
  call void @llvm.lifetime.end.p0(i64 4, ptr %6) #9
  call void @llvm.lifetime.end.p0(i64 8, ptr %5) #9
  ret void

134:                                              ; preds = %115
  unreachable
}