; Function Attrs: nounwind uwtable
define dso_local void @SlruDeleteSegment(ptr noundef %0, i64 noundef %1) local_unnamed_addr #3 {
  %3 = load ptr, ptr %0, align 8
  %4 = getelementptr inbounds nuw i8, ptr %3, i64 56
  %5 = load ptr, ptr %4, align 8
  %6 = tail call zeroext i1 @LWLockAcquire(ptr noundef %5, i32 noundef 0) #15
  %7 = getelementptr inbounds nuw i8, ptr %3, i64 16
  %8 = getelementptr inbounds nuw i8, ptr %3, i64 32
  %9 = getelementptr inbounds nuw i8, ptr %3, i64 24
  %10 = load i32, ptr %3, align 8
  %11 = icmp sgt i32 %10, 0
  br i1 %11, label %.split, label %.split47.us

.split:                                           ; preds = %2, %._crit_edge
  %12 = phi i32 [ %78, %._crit_edge ], [ %10, %2 ]
  %.0 = phi i32 [ %.2, %._crit_edge ], [ 0, %2 ]
  %13 = icmp sgt i32 %12, 0
  br i1 %13, label %.lr.ph, label %.split47.us.loopexit

._crit_edge:                                      ; preds = %SimpleLruWaitIO.exit
  br i1 %.137, label %.split, label %.split47.us.loopexit, !llvm.loop !19

.lr.ph:                                           ; preds = %.split, %SimpleLruWaitIO.exit
  %indvars.iv = phi i64 [ %indvars.iv.next, %SimpleLruWaitIO.exit ], [ 0, %.split ]
  %.144 = phi i32 [ %.2, %SimpleLruWaitIO.exit ], [ %.0, %.split ]
  %.03643 = phi i1 [ %.137, %SimpleLruWaitIO.exit ], [ false, %.split ]
  %14 = trunc nuw nsw i64 %indvars.iv to i32
  %15 = lshr i32 %14, 4
  %.not = icmp eq i32 %15, %.144
  br i1 %.not, label %24, label %16

16:                                               ; preds = %.lr.ph
  %17 = load ptr, ptr %4, align 8
  %18 = zext nneg i32 %.144 to i64
  %19 = getelementptr inbounds nuw %union.LWLockPadded, ptr %17, i64 %18
  tail call void @LWLockRelease(ptr noundef %19) #15
  %20 = load ptr, ptr %4, align 8
  %21 = zext nneg i32 %15 to i64
  %22 = getelementptr inbounds nuw %union.LWLockPadded, ptr %20, i64 %21
  %23 = tail call zeroext i1 @LWLockAcquire(ptr noundef %22, i32 noundef 0) #15
  br label %24

24:                                               ; preds = %16, %.lr.ph
  %.2 = phi i32 [ %15, %16 ], [ %.144, %.lr.ph ]
  %25 = load ptr, ptr %7, align 8
  %26 = getelementptr inbounds nuw i32, ptr %25, i64 %indvars.iv
  %27 = load i32, ptr %26, align 4
  %28 = icmp eq i32 %27, 0
  br i1 %28, label %SimpleLruWaitIO.exit, label %29

29:                                               ; preds = %24
  %30 = load ptr, ptr %8, align 8
  %31 = getelementptr inbounds nuw i64, ptr %30, i64 %indvars.iv
  %32 = load i64, ptr %31, align 8
  %33 = sdiv i64 %32, 32
  %.not41 = icmp eq i64 %33, %1
  br i1 %.not41, label %34, label %SimpleLruWaitIO.exit

34:                                               ; preds = %29
  %35 = icmp eq i32 %27, 2
  br i1 %35, label %36, label %43

36:                                               ; preds = %34
  %37 = load ptr, ptr %9, align 8
  %38 = getelementptr inbounds nuw i8, ptr %37, i64 %indvars.iv
  %39 = load i8, ptr %38, align 1, !range !4, !noundef !5
  %40 = trunc nuw i8 %39 to i1
  br i1 %40, label %42, label %41

41:                                               ; preds = %36
  store i32 0, ptr %26, align 4
  br label %SimpleLruWaitIO.exit

42:                                               ; preds = %36
  tail call fastcc void @SlruInternalWritePage(ptr noundef nonnull %0, i32 noundef %14, ptr noundef null)
  br label %SimpleLruWaitIO.exit

43:                                               ; preds = %34
  %.val = load ptr, ptr %0, align 8
  %44 = getelementptr inbounds nuw i8, ptr %.val, i64 56
  %45 = load ptr, ptr %44, align 8
  %46 = zext nneg i32 %15 to i64
  %47 = getelementptr inbounds nuw %union.LWLockPadded, ptr %45, i64 %46
  tail call void @LWLockRelease(ptr noundef %47) #15
  %48 = getelementptr inbounds nuw i8, ptr %.val, i64 48
  %49 = load ptr, ptr %48, align 8
  %50 = getelementptr inbounds nuw %union.LWLockPadded, ptr %49, i64 %indvars.iv
  %51 = tail call zeroext i1 @LWLockAcquire(ptr noundef %50, i32 noundef 1) #15
  %52 = load ptr, ptr %48, align 8
  %53 = getelementptr inbounds nuw %union.LWLockPadded, ptr %52, i64 %indvars.iv
  tail call void @LWLockRelease(ptr noundef %53) #15
  %54 = load ptr, ptr %44, align 8
  %55 = getelementptr inbounds nuw %union.LWLockPadded, ptr %54, i64 %46
  %56 = tail call zeroext i1 @LWLockAcquire(ptr noundef %55, i32 noundef 0) #15
  %57 = getelementptr inbounds nuw i8, ptr %.val, i64 16
  %58 = load ptr, ptr %57, align 8
  %59 = getelementptr inbounds nuw i32, ptr %58, i64 %indvars.iv
  %60 = load i32, ptr %59, align 4
  switch i32 %60, label %SimpleLruWaitIO.exit [
    i32 1, label %61
    i32 3, label %61
  ]

61:                                               ; preds = %43, %43
  %62 = load ptr, ptr %48, align 8
  %63 = getelementptr inbounds nuw %union.LWLockPadded, ptr %62, i64 %indvars.iv
  %64 = tail call zeroext i1 @LWLockConditionalAcquire(ptr noundef %63, i32 noundef 1) #15
  br i1 %64, label %65, label %SimpleLruWaitIO.exit

65:                                               ; preds = %61
  %66 = load ptr, ptr %57, align 8
  %67 = getelementptr inbounds nuw i32, ptr %66, i64 %indvars.iv
  %68 = load i32, ptr %67, align 4
  %69 = icmp eq i32 %68, 1
  br i1 %69, label %70, label %71

70:                                               ; preds = %65
  store i32 0, ptr %67, align 4
  br label %75

71:                                               ; preds = %65
  store i32 2, ptr %67, align 4
  %72 = getelementptr inbounds nuw i8, ptr %.val, i64 24
  %73 = load ptr, ptr %72, align 8
  %74 = getelementptr inbounds nuw i8, ptr %73, i64 %indvars.iv
  store i8 1, ptr %74, align 1
  br label %75

75:                                               ; preds = %71, %70
  %76 = load ptr, ptr %48, align 8
  %77 = getelementptr inbounds nuw %union.LWLockPadded, ptr %76, i64 %indvars.iv
  tail call void @LWLockRelease(ptr noundef %77) #15
  br label %SimpleLruWaitIO.exit

SimpleLruWaitIO.exit:                             ; preds = %75, %61, %43, %42, %29, %24, %41
  %.137 = phi i1 [ %.03643, %41 ], [ %.03643, %24 ], [ %.03643, %29 ], [ true, %42 ], [ true, %43 ], [ true, %61 ], [ true, %75 ]
  %indvars.iv.next = add nuw nsw i64 %indvars.iv, 1
  %78 = load i32, ptr %3, align 8
  %79 = sext i32 %78 to i64
  %80 = icmp slt i64 %indvars.iv.next, %79
  br i1 %80, label %.lr.ph, label %._crit_edge, !llvm.loop !21

.split47.us.loopexit:                             ; preds = %.split, %._crit_edge
  %.1.lcssa50 = phi i32 [ %.2, %._crit_edge ], [ %.0, %.split ]
  %81 = zext nneg i32 %.1.lcssa50 to i64
  br label %.split47.us

.split47.us:                                      ; preds = %.split47.us.loopexit, %2
  %.us-phi = phi i64 [ 0, %2 ], [ %81, %.split47.us.loopexit ]
  tail call fastcc void @SlruInternalDeleteSegment(ptr noundef nonnull %0, i64 noundef %1)
  %82 = load ptr, ptr %4, align 8
  %83 = getelementptr inbounds nuw %union.LWLockPadded, ptr %82, i64 %.us-phi
  tail call void @LWLockRelease(ptr noundef %83) #15
  ret void
}